target datalayout = "e-m:e-p270:32:32-p271:32:32-p272:64:64-i64:64-i128:128-f80:128-n8:16:32:64-S128"
target triple = "x86_64-unknown-linux-gnu"

%"class.mbp::arith_project_plugin" = type { %"class.mbp::project_plugin", ptr }
%"class.mbp::project_plugin" = type { ptr, ptr, %class.obj_mark, %class.ptr_vector, %class.obj_mark, %class.obj_mark, %class.ref_vector, %class.ref_vector, %class.ref_vector }
%class.ptr_vector = type { %class.vector }
%class.vector = type { ptr }
%class.obj_mark = type { %struct.default_t2uint, %class.bit_vector }
%struct.default_t2uint = type { i8 }
%class.bit_vector = type { i32, i32, ptr }
%class.ref_vector = type { %class.ref_vector_core }
%class.ref_vector_core = type { %class.ref_manager_wrapper, %class.ptr_vector }
%class.ref_manager_wrapper = type { ptr }
%"struct.mbp::arith_project_plugin::imp" = type <{ ptr, %class.arith_util, i8, i8, [6 x i8] }>
%class.arith_util = type { ptr, ptr }

; Function Attrs: mustprogress nounwind uwtable
define hidden void @_ZN3mbp20arith_project_plugin20set_apply_projectionEb(ptr noundef nonnull align 8 dereferenceable(152) %this, i1 noundef zeroext %f) #5 align 2 {
entry:
  %this.addr = alloca ptr, align 8
  %f.addr = alloca i8, align 1
  store ptr %this, ptr %this.addr, align 8
  %frombool = zext i1 %f to i8
  store i8 %frombool, ptr %f.addr, align 1
  %this1 = load ptr, ptr %this.addr, align 8
  %0 = load i8, ptr %f.addr, align 1
  %tobool = trunc i8 %0 to i1
  %m_imp = getelementptr inbounds %"class.mbp::arith_project_plugin", ptr %this1, i32 0, i32 1
  %1 = load ptr, ptr %m_imp, align 8
  %m_apply_projection = getelementptr inbounds %"struct.mbp::arith_project_plugin::imp", ptr %1, i32 0, i32 3
  %frombool2 = zext i1 %tobool to i8
  store i8 %frombool2, ptr %m_apply_projection, align 1
  ret void
}